target datalayout = "e-m:e-p270:32:32-p271:32:32-p272:64:64-i64:64-i128:128-f80:128-n8:16:32:64-S128"
target triple = "x86_64-pc-linux-gnu"

%struct._scsi_task_data = type { i32, ptr, ptr }
%struct._itlq_nexus_t = type { i32, i32, i16, i16, i16, i16, i32, i32, i32, %struct.nstime_t, %struct.nstime_t, ptr }
%struct.nstime_t = type { i64, i32 }
%struct._scsi_osd_extra_data_t = type { i16, i8, %union.anon, i32, i8 }
%union.anon = type { %struct.anon.0 }
%struct.anon.0 = type { i32, i32, i32, i32, i32, i32 }

@ett_osd_get_attributes = internal global i32 0, align 4
@.str.295 = private unnamed_addr constant [23 x i8] c"Get Attributes Segment\00", align 1
@.str.296 = private unnamed_addr constant [23 x i8] c"Set Attributes Segment\00", align 1

; Function Attrs: null_pointer_is_valid sspstrong uwtable
define internal void @dissect_osd_attribute_data_out(ptr noundef %0, ptr noundef %1, i32 noundef %2, ptr noundef %3, ptr noundef %4, ptr noundef %5) #3 {
  %7 = alloca ptr, align 8
  %8 = alloca ptr, align 8
  %9 = alloca i32, align 4
  %10 = alloca ptr, align 8
  %11 = alloca ptr, align 8
  %12 = alloca ptr, align 8
  %13 = alloca i8, align 1
  %14 = alloca ptr, align 8
  %15 = alloca ptr, align 8
  %16 = alloca i32, align 4
  store ptr %0, ptr %7, align 8
  store ptr %1, ptr %8, align 8
  store i32 %2, ptr %9, align 4
  store ptr %3, ptr %10, align 8
  store ptr %4, ptr %11, align 8
  store ptr %5, ptr %12, align 8
  call void @llvm.lifetime.start.p0(i64 1, ptr %13) #6
  store i8 0, ptr %13, align 1
  call void @llvm.lifetime.start.p0(i64 8, ptr %14) #6
  call void @llvm.lifetime.start.p0(i64 8, ptr %15) #6
  store ptr null, ptr %15, align 8
  %17 = load ptr, ptr %11, align 8
  %18 = icmp ne ptr %17, null
  br i1 %18, label %19, label %40

19:                                               ; preds = %6
  %20 = load ptr, ptr %11, align 8
  %21 = getelementptr inbounds nuw %struct._scsi_task_data, ptr %20, i32 0, i32 1
  %22 = load ptr, ptr %21, align 8
  %23 = icmp ne ptr %22, null
  br i1 %23, label %24, label %40

24:                                               ; preds = %19
  %25 = load ptr, ptr %11, align 8
  %26 = getelementptr inbounds nuw %struct._scsi_task_data, ptr %25, i32 0, i32 1
  %27 = load ptr, ptr %26, align 8
  %28 = getelementptr inbounds nuw %struct._itlq_nexus_t, ptr %27, i32 0, i32 11
  %29 = load ptr, ptr %28, align 8
  %30 = icmp ne ptr %29, null
  br i1 %30, label %31, label %40

31:                                               ; preds = %24
  %32 = load ptr, ptr %11, align 8
  %33 = getelementptr inbounds nuw %struct._scsi_task_data, ptr %32, i32 0, i32 1
  %34 = load ptr, ptr %33, align 8
  %35 = getelementptr inbounds nuw %struct._itlq_nexus_t, ptr %34, i32 0, i32 11
  %36 = load ptr, ptr %35, align 8
  store ptr %36, ptr %15, align 8
  %37 = load ptr, ptr %15, align 8
  %38 = getelementptr inbounds nuw %struct._scsi_osd_extra_data_t, ptr %37, i32 0, i32 1
  %39 = load i8, ptr %38, align 2
  store i8 %39, ptr %13, align 1
  br label %41

40:                                               ; preds = %24, %19, %6
  store i32 1, ptr %16, align 4
  br label %108

41:                                               ; preds = %31
  %42 = load i8, ptr %13, align 1
  %43 = zext i8 %42 to i32
  switch i32 %43, label %107 [
    i32 2, label %107
    i32 3, label %44
  ]

44:                                               ; preds = %41
  %45 = load ptr, ptr %15, align 8
  %46 = getelementptr inbounds nuw %struct._scsi_osd_extra_data_t, ptr %45, i32 0, i32 2
  %47 = getelementptr inbounds nuw %struct.anon.0, ptr %46, i32 0, i32 0
  %48 = load i32, ptr %47, align 4
  %49 = icmp ne i32 %48, 0
  br i1 %49, label %50, label %75

50:                                               ; preds = %44
  %51 = load ptr, ptr %10, align 8
  %52 = load ptr, ptr %8, align 8
  %53 = load ptr, ptr %15, align 8
  %54 = getelementptr inbounds nuw %struct._scsi_osd_extra_data_t, ptr %53, i32 0, i32 2
  %55 = getelementptr inbounds nuw %struct.anon.0, ptr %54, i32 0, i32 1
  %56 = load i32, ptr %55, align 4
  %57 = load ptr, ptr %15, align 8
  %58 = getelementptr inbounds nuw %struct._scsi_osd_extra_data_t, ptr %57, i32 0, i32 2
  %59 = getelementptr inbounds nuw %struct.anon.0, ptr %58, i32 0, i32 0
  %60 = load i32, ptr %59, align 4
  %61 = load i32, ptr @ett_osd_get_attributes, align 4
  %62 = call ptr @proto_tree_add_subtree(ptr noundef %51, ptr noundef %52, i32 noundef %56, i32 noundef %60, i32 noundef %61, ptr noundef null, ptr noundef @.str.295)
  store ptr %62, ptr %14, align 8
  %63 = load ptr, ptr %7, align 8
  %64 = load ptr, ptr %8, align 8
  %65 = load ptr, ptr %15, align 8
  %66 = getelementptr inbounds nuw %struct._scsi_osd_extra_data_t, ptr %65, i32 0, i32 2
  %67 = getelementptr inbounds nuw %struct.anon.0, ptr %66, i32 0, i32 1
  %68 = load i32, ptr %67, align 4
  %69 = load ptr, ptr %14, align 8
  %70 = load ptr, ptr %12, align 8
  %71 = load ptr, ptr %15, align 8
  %72 = getelementptr inbounds nuw %struct._scsi_osd_extra_data_t, ptr %71, i32 0, i32 4
  %73 = load i8, ptr %72, align 4, !range !9, !noundef !10
  %74 = trunc i8 %73 to i1
  call void @dissect_osd_attributes_list(ptr noundef %63, ptr noundef %64, i32 noundef %68, ptr noundef %69, ptr noundef %70, i1 noundef zeroext %74)
  br label %75

75:                                               ; preds = %50, %44
  %76 = load ptr, ptr %15, align 8
  %77 = getelementptr inbounds nuw %struct._scsi_osd_extra_data_t, ptr %76, i32 0, i32 2
  %78 = getelementptr inbounds nuw %struct.anon.0, ptr %77, i32 0, i32 4
  %79 = load i32, ptr %78, align 4
  %80 = icmp ne i32 %79, 0
  br i1 %80, label %81, label %106

81:                                               ; preds = %75
  %82 = load ptr, ptr %10, align 8
  %83 = load ptr, ptr %8, align 8
  %84 = load ptr, ptr %15, align 8
  %85 = getelementptr inbounds nuw %struct._scsi_osd_extra_data_t, ptr %84, i32 0, i32 2
  %86 = getelementptr inbounds nuw %struct.anon.0, ptr %85, i32 0, i32 5
  %87 = load i32, ptr %86, align 4
  %88 = load ptr, ptr %15, align 8
  %89 = getelementptr inbounds nuw %struct._scsi_osd_extra_data_t, ptr %88, i32 0, i32 2
  %90 = getelementptr inbounds nuw %struct.anon.0, ptr %89, i32 0, i32 4
  %91 = load i32, ptr %90, align 4
  %92 = load i32, ptr @ett_osd_get_attributes, align 4
  %93 = call ptr @proto_tree_add_subtree(ptr noundef %82, ptr noundef %83, i32 noundef %87, i32 noundef %91, i32 noundef %92, ptr noundef null, ptr noundef @.str.296)
  store ptr %93, ptr %14, align 8
  %94 = load ptr, ptr %7, align 8
  %95 = load ptr, ptr %8, align 8
  %96 = load ptr, ptr %15, align 8
  %97 = getelementptr inbounds nuw %struct._scsi_osd_extra_data_t, ptr %96, i32 0, i32 2
  %98 = getelementptr inbounds nuw %struct.anon.0, ptr %97, i32 0, i32 5
  %99 = load i32, ptr %98, align 4
  %100 = load ptr, ptr %14, align 8
  %101 = load ptr, ptr %12, align 8
  %102 = load ptr, ptr %15, align 8
  %103 = getelementptr inbounds nuw %struct._scsi_osd_extra_data_t, ptr %102, i32 0, i32 4
  %104 = load i8, ptr %103, align 4, !range !9, !noundef !10
  %105 = trunc i8 %104 to i1
  call void @dissect_osd_attributes_list(ptr noundef %94, ptr noundef %95, i32 noundef %99, ptr noundef %100, ptr noundef %101, i1 noundef zeroext %105)
  br label %106

106:                                              ; preds = %81, %75
  br label %107

107:                                              ; preds = %41, %106, %41
  store i32 0, ptr %16, align 4
  br label %108

108:                                              ; preds = %107, %40
  call void @llvm.lifetime.end.p0(i64 8, ptr %15) #6
  call void @llvm.lifetime.end.p0(i64 8, ptr %14) #6
  call void @llvm.lifetime.end.p0(i64 1, ptr %13) #6
  %109 = load i32, ptr %16, align 4
  switch i32 %109, label %111 [
    i32 0, label %110
    i32 1, label %110
  ]

110:                                              ; preds = %108, %108
  ret void

111:                                              ; preds = %108
  unreachable
}