; Function Attrs: null_pointer_is_valid sspstrong uwtable
define internal fastcc void @dissect_osd_attribute_data_out(ptr noundef %0, ptr noundef %1, ptr noundef %2, ptr noundef readonly captures(address_is_null) %3, ptr noundef %4) unnamed_addr #3 {
  %.not = icmp eq ptr %3, null
  br i1 %.not, label %39, label %6

6:                                                ; preds = %5
  %7 = getelementptr inbounds nuw i8, ptr %3, i64 8
  %8 = load ptr, ptr %7, align 8
  %.not31 = icmp eq ptr %8, null
  br i1 %.not31, label %39, label %9

9:                                                ; preds = %6
  %10 = getelementptr inbounds nuw i8, ptr %8, i64 64
  %11 = load ptr, ptr %10, align 8
  %.not32 = icmp eq ptr %11, null
  br i1 %.not32, label %39, label %12

12:                                               ; preds = %9
  %13 = getelementptr inbounds nuw i8, ptr %11, i64 2
  %14 = load i8, ptr %13, align 2
  %cond = icmp eq i8 %14, 3
  br i1 %cond, label %15, label %39

15:                                               ; preds = %12
  %16 = getelementptr inbounds nuw i8, ptr %11, i64 4
  %17 = load i32, ptr %16, align 4
  %.not33 = icmp eq i32 %17, 0
  br i1 %.not33, label %27, label %18

18:                                               ; preds = %15
  %19 = getelementptr inbounds nuw i8, ptr %11, i64 8
  %20 = load i32, ptr %19, align 4
  %21 = load i32, ptr @ett_osd_get_attributes, align 4
  %22 = tail call ptr @proto_tree_add_subtree(ptr noundef %2, ptr noundef %1, i32 noundef %20, i32 noundef %17, i32 noundef %21, ptr noundef null, ptr noundef nonnull @.str.295)
  %23 = load i32, ptr %19, align 4
  %24 = getelementptr inbounds nuw i8, ptr %11, i64 32
  %25 = load i8, ptr %24, align 4, !range !9, !noundef !10
  %26 = trunc nuw i8 %25 to i1
  tail call fastcc void @dissect_osd_attributes_list(ptr noundef %0, ptr noundef %1, i32 noundef %23, ptr noundef %22, ptr noundef %4, i1 noundef zeroext %26)
  br label %27

27:                                               ; preds = %18, %15
  %28 = getelementptr inbounds nuw i8, ptr %11, i64 20
  %29 = load i32, ptr %28, align 4
  %.not34 = icmp eq i32 %29, 0
  br i1 %.not34, label %39, label %30

30:                                               ; preds = %27
  %31 = getelementptr inbounds nuw i8, ptr %11, i64 24
  %32 = load i32, ptr %31, align 4
  %33 = load i32, ptr @ett_osd_get_attributes, align 4
  %34 = tail call ptr @proto_tree_add_subtree(ptr noundef %2, ptr noundef %1, i32 noundef %32, i32 noundef %29, i32 noundef %33, ptr noundef null, ptr noundef nonnull @.str.296)
  %35 = load i32, ptr %31, align 4
  %36 = getelementptr inbounds nuw i8, ptr %11, i64 32
  %37 = load i8, ptr %36, align 4, !range !9, !noundef !10
  %38 = trunc nuw i8 %37 to i1
  tail call fastcc void @dissect_osd_attributes_list(ptr noundef %0, ptr noundef %1, i32 noundef %35, ptr noundef %34, ptr noundef %4, i1 noundef zeroext %38)
  br label %39

39:                                               ; preds = %12, %30, %27, %5, %6, %9
  ret void
}